target datalayout = "e-m:e-p270:32:32-p271:32:32-p272:64:64-i64:64-i128:128-f80:128-n8:16:32:64-S128"
target triple = "x86_64-pc-linux-gnu"

%class.RtpAudioFile = type { %class.QIODevice, ptr, ptr, i64, i64, i64, i64, %struct.rtp_frame_info }
%class.QIODevice = type { %class.QObject }
%class.QObject = type { ptr, %class.QScopedPointer }
%class.QScopedPointer = type { ptr }
%struct.rtp_frame_info = type { i64, i64, i64, i32, i32 }

; Function Attrs: mustprogress uwtable
define noundef zeroext i1 @_ZN12RtpAudioFile4seekEx(ptr noundef nonnull align 8 dereferenceable(96) %0, i64 noundef %1) unnamed_addr #0 align 2 {
  %3 = alloca i1, align 1
  %4 = alloca ptr, align 8
  %5 = alloca i64, align 8
  %6 = alloca i64, align 8
  %7 = alloca i64, align 8
  %8 = alloca i64, align 8
  store ptr %0, ptr %4, align 8
  store i64 %1, ptr %5, align 8
  %9 = load ptr, ptr %4, align 8
  %10 = getelementptr inbounds %class.RtpAudioFile, ptr %9, i32 0, i32 4
  %11 = load i64, ptr %10, align 8
  %12 = load i64, ptr %5, align 8
  %13 = icmp sle i64 %11, %12
  br i1 %13, label %14, label %15

14:                                               ; preds = %2
  store i1 false, ptr %3, align 1
  br label %75

15:                                               ; preds = %2
  %16 = getelementptr inbounds %class.RtpAudioFile, ptr %9, i32 0, i32 2
  %17 = load ptr, ptr %16, align 8
  %18 = load ptr, ptr %17, align 8
  %19 = getelementptr inbounds ptr, ptr %18, i64 17
  %20 = load ptr, ptr %19, align 8
  %21 = call noundef zeroext i1 %20(ptr noundef nonnull align 8 dereferenceable(16) %17, i64 noundef 0)
  br label %22

22:                                               ; preds = %74, %15
  %23 = getelementptr inbounds %class.RtpAudioFile, ptr %9, i32 0, i32 2
  %24 = load ptr, ptr %23, align 8
  %25 = getelementptr inbounds %class.RtpAudioFile, ptr %9, i32 0, i32 7
  %26 = call noundef i64 @_ZN9QIODevice4readEPcx(ptr noundef nonnull align 8 dereferenceable(16) %24, ptr noundef %25, i64 noundef 32)
  %27 = icmp ne i64 %26, 0
  br i1 %27, label %29, label %28

28:                                               ; preds = %22
  store i1 false, ptr %3, align 1
  br label %75

29:                                               ; preds = %22
  %30 = getelementptr inbounds %class.RtpAudioFile, ptr %9, i32 0, i32 7
  %31 = getelementptr inbounds %struct.rtp_frame_info, ptr %30, i32 0, i32 0
  %32 = load i64, ptr %31, align 8
  %33 = getelementptr inbounds %class.RtpAudioFile, ptr %9, i32 0, i32 7
  %34 = getelementptr inbounds %struct.rtp_frame_info, ptr %33, i32 0, i32 2
  %35 = load i64, ptr %34, align 8
  %36 = add i64 %32, %35
  %37 = load i64, ptr %5, align 8
  %38 = icmp sgt i64 %36, %37
  br i1 %38, label %39, label %74

39:                                               ; preds = %29
  %40 = load i64, ptr %5, align 8
  %41 = getelementptr inbounds %class.RtpAudioFile, ptr %9, i32 0, i32 7
  %42 = getelementptr inbounds %struct.rtp_frame_info, ptr %41, i32 0, i32 0
  %43 = load i64, ptr %42, align 8
  %44 = sub i64 %40, %43
  store i64 %44, ptr %6, align 8
  %45 = getelementptr inbounds %class.RtpAudioFile, ptr %9, i32 0, i32 7
  %46 = getelementptr inbounds %struct.rtp_frame_info, ptr %45, i32 0, i32 0
  %47 = load i64, ptr %46, align 8
  %48 = load i64, ptr %6, align 8
  %49 = add i64 %47, %48
  store i64 %49, ptr %7, align 8
  %50 = getelementptr inbounds %class.RtpAudioFile, ptr %9, i32 0, i32 7
  %51 = getelementptr inbounds %struct.rtp_frame_info, ptr %50, i32 0, i32 1
  %52 = load i64, ptr %51, align 8
  %53 = load i64, ptr %6, align 8
  %54 = add i64 %52, %53
  store i64 %54, ptr %8, align 8
  %55 = getelementptr inbounds %class.RtpAudioFile, ptr %9, i32 0, i32 7
  %56 = getelementptr inbounds %struct.rtp_frame_info, ptr %55, i32 0, i32 4
  %57 = load i32, ptr %56, align 4
  %58 = icmp eq i32 %57, 0
  br i1 %58, label %59, label %71

59:                                               ; preds = %39
  %60 = getelementptr inbounds %class.RtpAudioFile, ptr %9, i32 0, i32 1
  %61 = load ptr, ptr %60, align 8
  %62 = load i64, ptr %8, align 8
  %63 = load ptr, ptr %61, align 8
  %64 = getelementptr inbounds ptr, ptr %63, i64 17
  %65 = load ptr, ptr %64, align 8
  %66 = call noundef zeroext i1 %65(ptr noundef nonnull align 8 dereferenceable(16) %61, i64 noundef %62)
  br i1 %66, label %68, label %67

67:                                               ; preds = %59
  store i1 false, ptr %3, align 1
  br label %75

68:                                               ; preds = %59
  %69 = load i64, ptr %7, align 8
  %70 = getelementptr inbounds %class.RtpAudioFile, ptr %9, i32 0, i32 3
  store i64 %69, ptr %70, align 8
  store i1 true, ptr %3, align 1
  br label %75

71:                                               ; preds = %39
  %72 = load i64, ptr %7, align 8
  %73 = getelementptr inbounds %class.RtpAudioFile, ptr %9, i32 0, i32 3
  store i64 %72, ptr %73, align 8
  store i1 true, ptr %3, align 1
  br label %75

74:                                               ; preds = %29
  br label %22, !llvm.loop !6

75:                                               ; preds = %71, %68, %67, %28, %14
  %76 = load i1, ptr %3, align 1
  ret i1 %76
}