; Function Attrs: mustprogress uwtable
define noundef zeroext i1 @_ZN12RtpAudioFile4seekEx(ptr noundef nonnull align 8 dereferenceable(96) %0, i64 noundef %1) unnamed_addr #0 align 2 {
  %3 = getelementptr inbounds i8, ptr %0, i64 40
  %4 = load i64, ptr %3, align 8
  %.not = icmp sgt i64 %4, %1
  br i1 %.not, label %5, label %.loopexit

5:                                                ; preds = %2
  %6 = getelementptr inbounds i8, ptr %0, i64 24
  %7 = load ptr, ptr %6, align 8
  %8 = load ptr, ptr %7, align 8
  %9 = getelementptr inbounds i8, ptr %8, i64 136
  %10 = load ptr, ptr %9, align 8
  %11 = tail call noundef zeroext i1 %10(ptr noundef nonnull align 8 dereferenceable(16) %7, i64 noundef 0)
  %12 = getelementptr inbounds i8, ptr %0, i64 64
  %13 = getelementptr inbounds i8, ptr %0, i64 80
  br label %14

14:                                               ; preds = %17, %5
  %15 = load ptr, ptr %6, align 8
  %16 = tail call noundef i64 @_ZN9QIODevice4readEPcx(ptr noundef nonnull align 8 dereferenceable(16) %15, ptr noundef nonnull %12, i64 noundef 32)
  %.not10 = icmp eq i64 %16, 0
  br i1 %.not10, label %.loopexit, label %17

17:                                               ; preds = %14
  %18 = load i64, ptr %12, align 8
  %19 = load i64, ptr %13, align 8
  %20 = add i64 %19, %18
  %21 = icmp sgt i64 %20, %1
  br i1 %21, label %22, label %14, !llvm.loop !6

22:                                               ; preds = %17
  %23 = getelementptr inbounds i8, ptr %0, i64 92
  %24 = load i32, ptr %23, align 4
  %25 = icmp eq i32 %24, 0
  br i1 %25, label %26, label %.loopexit.sink.split

26:                                               ; preds = %22
  %27 = getelementptr inbounds i8, ptr %0, i64 72
  %28 = load i64, ptr %27, align 8
  %29 = sub i64 %1, %18
  %30 = add i64 %29, %28
  %31 = getelementptr inbounds i8, ptr %0, i64 16
  %32 = load ptr, ptr %31, align 8
  %33 = load ptr, ptr %32, align 8
  %34 = getelementptr inbounds i8, ptr %33, i64 136
  %35 = load ptr, ptr %34, align 8
  %36 = tail call noundef zeroext i1 %35(ptr noundef nonnull align 8 dereferenceable(16) %32, i64 noundef %30)
  br i1 %36, label %.loopexit.sink.split, label %.loopexit

.loopexit.sink.split:                             ; preds = %22, %26
  %37 = getelementptr inbounds i8, ptr %0, i64 32
  store i64 %1, ptr %37, align 8
  br label %.loopexit

.loopexit:                                        ; preds = %14, %.loopexit.sink.split, %26, %2
  %.0 = phi i1 [ false, %2 ], [ false, %26 ], [ true, %.loopexit.sink.split ], [ false, %14 ]
  ret i1 %.0
}